Certificate:
    Data:
        Version: 3 (0x2)
        Serial Number: 4097 (0x1001)
    Signature Algorithm: ecdsa-with-SHA256
        Issuer: CN=sros2testCA
        Validity
            Not Before: Jul 31 18:48:31 2018 GMT
            Not After : Jul 28 18:48:31 2028 GMT
        Subject: CN=subscriber
        Subject Public Key Info:
            Public Key Algorithm: id-ecPublicKey
                Public-Key: (256 bit)
                pub: 
                    04:d8:00:19:07:01:89:8c:ae:ab:73:5a:53:c5:9f:
                    25:37:6c:04:e1:50:bc:75:84:ed:d0:2e:bc:b0:85:
                    88:2e:63:e4:a7:4c:4b:18:00:48:80:8a:b5:72:71:
                    48:81:04:0e:a4:42:5e:29:9b:98:5c:5a:81:e9:81:
                    54:1e:e3:b1:7c
                ASN1 OID: prime256v1
                NIST CURVE: P-256
        X509v3 extensions:
            X509v3 Basic Constraints: 
                CA:FALSE
    Signature Algorithm: ecdsa-with-SHA256
         30:45:02:21:00:9a:15:f4:e4:65:27:07:2e:6a:89:d8:94:ab:
         c8:1e:62:b7:17:c5:ef:c3:6a:2e:76:d1:5f:3d:20:87:ca:ae:
         e5:02:20:2e:17:26:df:b4:53:91:ee:7d:34:2d:d7:f1:ed:c0:
         48:2a:56:cc:86:c4:13:69:10:56:be:dc:2a:b1:2a:8c:2f
-----BEGIN CERTIFICATE-----
MIIBJzCBzqADAgECAgIQATAKBggqhkjOPQQDAjAWMRQwEgYDVQQDDAtzcm9zMnRl
c3RDQTAeFw0xODA3MzExODQ4MzFaFw0yODA3MjgxODQ4MzFaMBUxEzARBgNVBAMM
CnN1YnNjcmliZXIwWTATBgcqhkjOPQIBBggqhkjOPQMBBwNCAATYABkHAYmMrqtz
WlPFnyU3bAThULx1hO3QLrywhYguY+SnTEsYAEiAirVycUiBBA6kQl4pm5hcWoHp
gVQe47F8ow0wCzAJBgNVHRMEAjAAMAoGCCqGSM49BAMCA0gAMEUCIQCaFfTkZScH
LmqJ2JSryB5itxfF78NqLnbRXz0gh8qu5QIgLhcm37RTke59NC3X8e3ASCpWzIbE
E2kQVr7cKrEqjC8=
-----END CERTIFICATE-----
