Certificate:
    Data:
        Version: 1 (0x0)
        Serial Number: 4097 (0x1001)
    Signature Algorithm: ecdsa-with-SHA256
        Issuer: CN=sros2testCA
        Validity
            Not Before: Apr 25 00:53:57 2018 GMT
            Not After : Apr 22 00:53:57 2028 GMT
        Subject: CN=subscriber
        Subject Public Key Info:
            Public Key Algorithm: id-ecPublicKey
                Public-Key: (256 bit)
                pub: 
                    04:12:67:d4:16:32:23:bd:0e:e1:27:ef:0f:7b:ef:
                    81:20:d9:95:a0:2c:fe:d7:91:33:1e:83:c4:56:cc:
                    85:02:5e:07:82:9a:38:72:e6:b2:e0:99:2f:dd:25:
                    d5:de:e0:f6:bb:19:29:a2:9b:cf:c1:eb:96:8c:a9:
                    6e:c8:a1:08:d0
                ASN1 OID: prime256v1
                NIST CURVE: P-256
    Signature Algorithm: ecdsa-with-SHA256
         30:45:02:20:40:20:6c:c9:74:db:77:7f:70:c8:88:a7:54:91:
         9f:27:cf:9f:f7:69:0a:b0:f8:f3:af:66:a7:47:c5:f0:11:b8:
         02:21:00:e8:55:c7:29:4a:7b:53:eb:97:f2:1f:82:0f:b9:ab:
         6b:bd:f7:46:1b:76:ab:7b:fa:10:5e:85:02:47:c0:70:d8
-----BEGIN CERTIFICATE-----
MIIBEzCBugICEAEwCgYIKoZIzj0EAwIwFjEUMBIGA1UEAwwLc3JvczJ0ZXN0Q0Ew
HhcNMTgwNDI1MDA1MzU3WhcNMjgwNDIyMDA1MzU3WjAVMRMwEQYDVQQDDApzdWJz
Y3JpYmVyMFkwEwYHKoZIzj0CAQYIKoZIzj0DAQcDQgAEEmfUFjIjvQ7hJ+8Pe++B
INmVoCz+15EzHoPEVsyFAl4Hgpo4cuay4Jkv3SXV3uD2uxkpopvPweuWjKluyKEI
0DAKBggqhkjOPQQDAgNIADBFAiBAIGzJdNt3f3DIiKdUkZ8nz5/3aQqw+POvZqdH
xfARuAIhAOhVxylKe1Prl/Ifgg+5q2u990Ybdqt7+hBehQJHwHDY
-----END CERTIFICATE-----
