Certificate:
    Data:
        Version: 1 (0x0)
        Serial Number: 4096 (0x1000)
    Signature Algorithm: ecdsa-with-SHA256
        Issuer: CN=sros2testCA
        Validity
            Not Before: Oct 11 00:25:46 2017 GMT
            Not After : Oct  9 00:25:46 2027 GMT
        Subject: CN=publisher
        Subject Public Key Info:
            Public Key Algorithm: id-ecPublicKey
                Public-Key: (256 bit)
                pub: 
                    04:bd:a8:79:6f:2d:c7:88:eb:85:0a:bd:58:fb:67:
                    76:1e:01:a9:27:8e:84:78:45:5b:1f:b5:26:2e:3d:
                    42:17:86:71:ba:4e:ae:8e:d0:33:66:c1:03:7c:41:
                    20:a3:60:e0:66:15:44:d2:3c:3e:00:60:11:43:11:
                    65:26:8b:00:92
                ASN1 OID: prime256v1
                NIST CURVE: P-256
    Signature Algorithm: ecdsa-with-SHA256
         30:46:02:21:00:a0:da:61:f5:79:36:ad:49:72:63:44:db:5d:
         12:64:48:33:dd:a0:bb:8d:64:d4:85:26:c2:84:ea:be:20:01:
         eb:02:21:00:d3:94:dd:ea:21:b8:3f:f3:90:53:e7:7a:0d:30:
         75:17:72:6f:00:65:19:8e:68:c0:d2:be:97:0d:74:bd:f5:76
-----BEGIN CERTIFICATE-----
MIIBEzCBuQICEAAwCgYIKoZIzj0EAwIwFjEUMBIGA1UEAwwLc3JvczJ0ZXN0Q0Ew
HhcNMTcxMDExMDAyNTQ2WhcNMjcxMDA5MDAyNTQ2WjAUMRIwEAYDVQQDDAlwdWJs
aXNoZXIwWTATBgcqhkjOPQIBBggqhkjOPQMBBwNCAAS9qHlvLceI64UKvVj7Z3Ye
AaknjoR4RVsftSYuPUIXhnG6Tq6O0DNmwQN8QSCjYOBmFUTSPD4AYBFDEWUmiwCS
MAoGCCqGSM49BAMCA0kAMEYCIQCg2mH1eTatSXJjRNtdEmRIM92gu41k1IUmwoTq
viAB6wIhANOU3eohuD/zkFPneg0wdRdybwBlGY5owNK+lw10vfV2
-----END CERTIFICATE-----
