Certificate:
    Data:
        Version: 1 (0x0)
        Serial Number: 4096 (0x1000)
    Signature Algorithm: ecdsa-with-SHA256
        Issuer: CN=sros2testCA
        Validity
            Not Before: Sep 27 00:21:43 2017 GMT
            Not After : Sep 25 00:21:43 2027 GMT
        Subject: CN=publisher
        Subject Public Key Info:
            Public Key Algorithm: id-ecPublicKey
                Public-Key: (256 bit)
                pub: 
                    04:d0:9b:6b:3f:57:5c:6f:47:c3:6e:3d:f3:46:79:
                    79:73:8f:2f:36:8a:0d:ae:6c:53:ce:65:29:04:d6:
                    2b:99:c2:63:4d:53:7e:dc:43:84:0a:00:92:3d:45:
                    2a:7e:3d:0a:4a:41:73:bc:04:b8:7f:cc:92:ae:80:
                    a2:b4:2c:4f:44
                ASN1 OID: prime256v1
                NIST CURVE: P-256
    Signature Algorithm: ecdsa-with-SHA256
         30:46:02:21:00:bc:f3:ec:03:30:a3:dd:95:5c:2e:62:71:1b:
         20:6c:2b:6f:dc:8a:33:e0:33:0e:01:59:0e:92:bc:be:e1:6b:
         78:02:21:00:e4:a6:04:2f:f9:c6:1b:49:2b:9f:09:80:ec:a0:
         13:e9:65:07:93:2b:7b:fe:7c:6c:87:9d:5e:0b:84:b9:3e:4c
-----BEGIN CERTIFICATE-----
MIIBEzCBuQICEAAwCgYIKoZIzj0EAwIwFjEUMBIGA1UEAwwLc3JvczJ0ZXN0Q0Ew
HhcNMTcwOTI3MDAyMTQzWhcNMjcwOTI1MDAyMTQzWjAUMRIwEAYDVQQDDAlwdWJs
aXNoZXIwWTATBgcqhkjOPQIBBggqhkjOPQMBBwNCAATQm2s/V1xvR8NuPfNGeXlz
jy82ig2ubFPOZSkE1iuZwmNNU37cQ4QKAJI9RSp+PQpKQXO8BLh/zJKugKK0LE9E
MAoGCCqGSM49BAMCA0kAMEYCIQC88+wDMKPdlVwuYnEbIGwrb9yKM+AzDgFZDpK8
vuFreAIhAOSmBC/5xhtJK58JgOygE+llB5Mre/58bIedXguEuT5M
-----END CERTIFICATE-----
