Certificate:
    Data:
        Version: 1 (0x0)
        Serial Number: 4096 (0x1000)
    Signature Algorithm: ecdsa-with-SHA256
        Issuer: CN=sros2testCA
        Validity
            Not Before: Apr 25 00:53:56 2018 GMT
            Not After : Apr 22 00:53:56 2028 GMT
        Subject: CN=publisher
        Subject Public Key Info:
            Public Key Algorithm: id-ecPublicKey
                Public-Key: (256 bit)
                pub: 
                    04:e3:c8:9d:87:16:85:0f:4f:6c:62:aa:57:85:1e:
                    32:d2:16:66:6b:4f:cc:26:8e:7e:60:b9:d7:18:a9:
                    35:79:62:84:f1:b2:ac:6f:bc:56:d9:1e:2c:d7:15:
                    a7:af:22:51:bb:46:d9:f3:81:e4:8c:76:fe:e2:62:
                    a1:77:cf:5e:14
                ASN1 OID: prime256v1
                NIST CURVE: P-256
    Signature Algorithm: ecdsa-with-SHA256
         30:46:02:21:00:eb:ed:3b:70:41:aa:c0:c9:b2:27:44:28:00:
         dd:a8:06:ab:9d:93:68:d4:27:df:45:44:47:98:60:25:76:b5:
         5b:02:21:00:c3:bc:eb:36:5f:0a:7f:1d:88:08:ef:f6:35:41:
         88:34:97:da:7e:11:70:a2:2d:75:0b:a8:e8:8e:79:8c:ce:8e
-----BEGIN CERTIFICATE-----
MIIBEzCBuQICEAAwCgYIKoZIzj0EAwIwFjEUMBIGA1UEAwwLc3JvczJ0ZXN0Q0Ew
HhcNMTgwNDI1MDA1MzU2WhcNMjgwNDIyMDA1MzU2WjAUMRIwEAYDVQQDDAlwdWJs
aXNoZXIwWTATBgcqhkjOPQIBBggqhkjOPQMBBwNCAATjyJ2HFoUPT2xiqleFHjLS
FmZrT8wmjn5gudcYqTV5YoTxsqxvvFbZHizXFaevIlG7RtnzgeSMdv7iYqF3z14U
MAoGCCqGSM49BAMCA0kAMEYCIQDr7TtwQarAybInRCgA3agGq52TaNQn30VER5hg
JXa1WwIhAMO86zZfCn8diAjv9jVBiDSX2n4RcKItdQuo6I55jM6O
-----END CERTIFICATE-----
