Certificate:
    Data:
        Version: 1 (0x0)
        Serial Number: 4097 (0x1001)
    Signature Algorithm: ecdsa-with-SHA256
        Issuer: CN=sros2testCA
        Validity
            Not Before: Oct 11 00:25:51 2017 GMT
            Not After : Oct  9 00:25:51 2027 GMT
        Subject: CN=subscriber
        Subject Public Key Info:
            Public Key Algorithm: id-ecPublicKey
                Public-Key: (256 bit)
                pub: 
                    04:fe:a9:4a:3d:d4:1b:2a:30:4d:d3:a3:a6:60:4c:
                    b8:43:41:65:21:43:d0:38:28:d2:fb:4c:64:73:68:
                    89:8e:64:14:c7:5b:9e:a8:01:54:c3:20:3d:06:85:
                    b6:47:7e:fd:ca:7f:57:d9:0f:6b:d9:a3:85:fd:2f:
                    ad:38:f4:ba:88
                ASN1 OID: prime256v1
                NIST CURVE: P-256
    Signature Algorithm: ecdsa-with-SHA256
         30:45:02:20:2a:ae:b4:f5:0e:88:37:e7:2d:57:d4:05:34:e8:
         52:6a:5c:9a:62:62:db:27:e8:1e:e9:d5:5d:a3:cc:f8:e9:1d:
         02:21:00:b1:ff:37:34:2c:de:57:cf:f0:e3:27:f6:aa:fc:f3:
         fc:d1:d0:7f:45:15:16:c5:b5:d1:f1:5e:29:8d:b0:4f:69
-----BEGIN CERTIFICATE-----
MIIBEzCBugICEAEwCgYIKoZIzj0EAwIwFjEUMBIGA1UEAwwLc3JvczJ0ZXN0Q0Ew
HhcNMTcxMDExMDAyNTUxWhcNMjcxMDA5MDAyNTUxWjAVMRMwEQYDVQQDDApzdWJz
Y3JpYmVyMFkwEwYHKoZIzj0CAQYIKoZIzj0DAQcDQgAE/qlKPdQbKjBN06OmYEy4
Q0FlIUPQOCjS+0xkc2iJjmQUx1ueqAFUwyA9BoW2R379yn9X2Q9r2aOF/S+tOPS6
iDAKBggqhkjOPQQDAgNIADBFAiAqrrT1Dog35y1X1AU06FJqXJpiYtsn6B7p1V2j
zPjpHQIhALH/NzQs3lfP8OMn9qr88/zR0H9FFRbFtdHxXimNsE9p
-----END CERTIFICATE-----
