Certificate:
    Data:
        Version: 1 (0x0)
        Serial Number: 4097 (0x1001)
    Signature Algorithm: ecdsa-with-SHA256
        Issuer: CN=sros2testCA
        Validity
            Not Before: Sep 27 00:21:48 2017 GMT
            Not After : Sep 25 00:21:48 2027 GMT
        Subject: CN=subscriber
        Subject Public Key Info:
            Public Key Algorithm: id-ecPublicKey
                Public-Key: (256 bit)
                pub: 
                    04:31:3b:05:fe:83:cb:84:6e:e0:d7:f7:bc:7d:3f:
                    d5:43:1d:4b:99:98:ef:4b:98:ed:77:a9:6e:3b:40:
                    77:33:5a:0f:9f:34:6f:1b:a7:89:ca:5b:3e:96:bb:
                    63:b3:4c:38:1d:43:fa:c3:4e:0c:f4:07:97:b4:ac:
                    74:8c:ce:93:d4
                ASN1 OID: prime256v1
                NIST CURVE: P-256
    Signature Algorithm: ecdsa-with-SHA256
         30:45:02:20:48:24:f8:69:8c:26:36:d4:4d:4f:f9:59:fa:68:
         62:6e:2c:c3:a8:53:db:90:4b:c3:c1:41:13:67:82:cb:91:76:
         02:21:00:b0:06:c9:46:5f:27:27:40:7e:d6:fd:22:d1:c1:8e:
         98:6e:bd:d5:6c:9f:a3:b4:d6:6a:7d:7a:6a:6d:d0:ad:07
-----BEGIN CERTIFICATE-----
MIIBEzCBugICEAEwCgYIKoZIzj0EAwIwFjEUMBIGA1UEAwwLc3JvczJ0ZXN0Q0Ew
HhcNMTcwOTI3MDAyMTQ4WhcNMjcwOTI1MDAyMTQ4WjAVMRMwEQYDVQQDDApzdWJz
Y3JpYmVyMFkwEwYHKoZIzj0CAQYIKoZIzj0DAQcDQgAEMTsF/oPLhG7g1/e8fT/V
Qx1LmZjvS5jtd6luO0B3M1oPnzRvG6eJyls+lrtjs0w4HUP6w04M9AeXtKx0jM6T
1DAKBggqhkjOPQQDAgNIADBFAiBIJPhpjCY21E1P+Vn6aGJuLMOoU9uQS8PBQRNn
gsuRdgIhALAGyUZfJydAftb9ItHBjphuvdVsn6O01mp9empt0K0H
-----END CERTIFICATE-----
