Certificate:
    Data:
        Version: 3 (0x2)
        Serial Number: 4097 (0x1001)
    Signature Algorithm: ecdsa-with-SHA256
        Issuer: CN=sros2testCA
        Validity
            Not Before: May  1 01:37:04 2018 GMT
            Not After : Apr 28 01:37:04 2028 GMT
        Subject: CN=subscriber
        Subject Public Key Info:
            Public Key Algorithm: id-ecPublicKey
                Public-Key: (256 bit)
                pub: 
                    04:36:b6:b6:eb:9f:2f:6f:bd:81:71:f6:85:1f:d9:
                    93:8e:37:a4:ff:76:a6:26:ed:0e:eb:c4:2f:59:9c:
                    9c:f7:a0:f5:63:c5:03:8c:a9:b2:db:9b:8c:3f:b3:
                    94:5a:bc:cd:76:da:38:ce:c8:ee:e4:98:75:97:f2:
                    72:d8:e0:24:5c
                ASN1 OID: prime256v1
                NIST CURVE: P-256
        X509v3 extensions:
            X509v3 Basic Constraints: 
                CA:FALSE
    Signature Algorithm: ecdsa-with-SHA256
         30:45:02:20:22:07:4c:04:1f:5a:4b:52:b9:f3:db:3e:6d:b3:
         2c:a8:00:6a:79:20:47:61:12:98:e2:05:af:75:f3:55:e5:03:
         02:21:00:b8:6c:0f:fa:bc:ce:a9:cb:11:e7:5d:e3:69:c3:22:
         25:f8:da:90:e4:f8:3d:e0:ba:c7:f0:d1:4c:5a:80:f8:d3
-----BEGIN CERTIFICATE-----
MIIBJzCBzqADAgECAgIQATAKBggqhkjOPQQDAjAWMRQwEgYDVQQDDAtzcm9zMnRl
c3RDQTAeFw0xODA1MDEwMTM3MDRaFw0yODA0MjgwMTM3MDRaMBUxEzARBgNVBAMM
CnN1YnNjcmliZXIwWTATBgcqhkjOPQIBBggqhkjOPQMBBwNCAAQ2trbrny9vvYFx
9oUf2ZOON6T/dqYm7Q7rxC9ZnJz3oPVjxQOMqbLbm4w/s5RavM122jjOyO7kmHWX
8nLY4CRcow0wCzAJBgNVHRMEAjAAMAoGCCqGSM49BAMCA0gAMEUCICIHTAQfWktS
ufPbPm2zLKgAankgR2ESmOIFr3XzVeUDAiEAuGwP+rzOqcsR513jacMiJfjakOT4
PeC6x/DRTFqA+NM=
-----END CERTIFICATE-----
