Certificate:
    Data:
        Version: 3 (0x2)
        Serial Number: 4098 (0x1002)
    Signature Algorithm: ecdsa-with-SHA256
        Issuer: CN=sros2testCA
        Validity
            Not Before: May  1 01:37:30 2018 GMT
            Not After : Apr 28 01:37:30 2028 GMT
        Subject: CN=publisher_invalid_cert
        Subject Public Key Info:
            Public Key Algorithm: id-ecPublicKey
                Public-Key: (256 bit)
                pub: 
                    04:1c:41:f3:0a:57:45:d9:d5:5e:36:4a:19:17:16:
                    90:e2:bf:63:e0:1f:82:52:89:2c:c0:4d:e2:ed:f1:
                    59:33:f7:3f:d4:2b:7c:84:05:60:74:4e:1e:1c:1a:
                    55:ba:d1:47:a4:bf:24:f7:5e:20:54:35:2a:18:29:
                    0e:d5:27:1c:a1
                ASN1 OID: prime256v1
                NIST CURVE: P-256
        X509v3 extensions:
            X509v3 Basic Constraints: 
                CA:FALSE
    Signature Algorithm: ecdsa-with-SHA256
         30:45:02:21:00:e9:c6:8b:7d:12:17:a3:3c:3a:62:9d:56:23:
         5f:68:f2:a4:ca:c4:30:59:ad:f7:cc:e1:fb:5f:89:d9:7b:87:
         19:02:20:06:f7:04:9b:69:18:a9:19:bb:d3:9e:72:59:1c:3a:
         80:c0:28:c3:42:76:7c:02:eb:64:b3:3b:8d:d3:9c:3b:e9
-----BEGIN CERTIFICATE-----
MIIBMzCB2qADAgECAgIQAjAKBggqhkjOPQQDAjAWMRQwEgYDVQQDDAtzcm9zMnRl
c3RDQTAeFw0xODA1MDEwMTM3MzBaFw0yODA0MjgwMTM3MzBaMCExHzAdBgNVBAMM
FnB1Ymxpc2hlcl9pbnZhbGlkX2NlcnQwWTATBgcqhkjOPQIBBggqhkjOPQMBBwNC
AAQcQfMKV0XZ1V42ShkXFpDiv2PgH4JSiSzATeLt8Vkz9z/UK3yEBWB0Th4cGlW6
0UekvyT3XiBUNSoYKQ7VJxyhow0wCzAJBgNVHRMEAjAAMAoGCCqGSM49BAMCA0gA
MEUCIQDpxot9EhejPDpinVYjX2jypMrEMFmt98zh+1+J2XuHGQIgBvcEm2kYqRm7
055yWRw6gMAow0J2fALrZLM7jdOcO+k=
-----END CERTIFICATE-----
