Certificate:
    Data:
        Version: 1 (0x0)
        Serial Number: 4098 (0x1002)
    Signature Algorithm: ecdsa-with-SHA256
        Issuer: CN=sros2testCA
        Validity
            Not Before: Oct 11 00:26:01 2017 GMT
            Not After : Oct  9 00:26:01 2027 GMT
        Subject: CN=publisher_invalid_cert
        Subject Public Key Info:
            Public Key Algorithm: id-ecPublicKey
                Public-Key: (256 bit)
                pub: 
                    04:31:01:e6:e1:dd:9f:41:ba:68:bf:be:d9:ee:13:
                    b7:22:d3:b9:e0:c9:6a:04:34:04:70:6c:e7:e8:70:
                    a0:33:66:ee:51:28:1b:8e:20:51:47:b9:16:69:33:
                    33:01:90:f0:a8:66:f1:08:ec:25:55:0a:0f:55:4f:
                    ad:df:bd:80:9c
                ASN1 OID: prime256v1
                NIST CURVE: P-256
    Signature Algorithm: ecdsa-with-SHA256
         30:45:02:20:48:f7:7f:43:89:98:ec:92:cf:83:80:22:57:7b:
         fc:ce:30:36:b0:7f:5e:8f:64:ac:51:24:b5:c4:d4:84:8c:7b:
         02:21:00:c5:f7:e8:e1:9c:56:f9:32:7c:60:f9:b2:fd:3b:1e:
         3b:f0:ea:79:e8:f7:b3:0e:79:84:31:45:10:53:4c:e2:f7
-----BEGIN CERTIFICATE-----
MIIBHzCBxgICEAIwCgYIKoZIzj0EAwIwFjEUMBIGA1UEAwwLc3JvczJ0ZXN0Q0Ew
HhcNMTcxMDExMDAyNjAxWhcNMjcxMDA5MDAyNjAxWjAhMR8wHQYDVQQDDBZwdWJs
aXNoZXJfaW52YWxpZF9jZXJ0MFkwEwYHKoZIzj0CAQYIKoZIzj0DAQcDQgAEMQHm
4d2fQbpov77Z7hO3ItO54MlqBDQEcGzn6HCgM2buUSgbjiBRR7kWaTMzAZDwqGbx
COwlVQoPVU+t372AnDAKBggqhkjOPQQDAgNIADBFAiBI939DiZjsks+DgCJXe/zO
MDawf16PZKxRJLXE1ISMewIhAMX36OGcVvkyfGD5sv07Hjvw6nno97MOeYQxRRBT
TOL3
-----END CERTIFICATE-----
