Certificate:
    Data:
        Version: 1 (0x0)
        Serial Number: 4098 (0x1002)
    Signature Algorithm: ecdsa-with-SHA256
        Issuer: CN=sros2testCA
        Validity
            Not Before: Sep 27 00:22:08 2017 GMT
            Not After : Sep 25 00:22:08 2027 GMT
        Subject: CN=publisher_missing_key
        Subject Public Key Info:
            Public Key Algorithm: id-ecPublicKey
                Public-Key: (256 bit)
                pub: 
                    04:aa:14:05:99:12:f8:12:8d:52:a3:71:e1:f8:82:
                    9e:c8:f9:d5:2f:3f:50:eb:de:b1:bf:2f:5c:b4:ba:
                    2c:3b:93:29:83:e3:4d:d4:f3:c8:20:de:84:2d:af:
                    e2:53:c1:d7:12:06:de:cd:95:02:84:1b:49:a0:b5:
                    5a:ba:b4:a5:4b
                ASN1 OID: prime256v1
                NIST CURVE: P-256
    Signature Algorithm: ecdsa-with-SHA256
         30:46:02:21:00:97:42:55:38:6a:8f:4d:07:6f:81:fb:ac:2c:
         0e:dd:c7:2c:61:d9:25:26:7f:e3:f5:fd:8c:a1:fa:95:40:6c:
         84:02:21:00:9e:62:79:93:02:57:09:30:72:f8:9a:51:14:69:
         b6:f2:6e:2c:ec:ee:59:37:18:16:89:99:01:ad:0a:fd:8f:3c
-----BEGIN CERTIFICATE-----
MIIBHzCBxQICEAIwCgYIKoZIzj0EAwIwFjEUMBIGA1UEAwwLc3JvczJ0ZXN0Q0Ew
HhcNMTcwOTI3MDAyMjA4WhcNMjcwOTI1MDAyMjA4WjAgMR4wHAYDVQQDDBVwdWJs
aXNoZXJfbWlzc2luZ19rZXkwWTATBgcqhkjOPQIBBggqhkjOPQMBBwNCAASqFAWZ
EvgSjVKjceH4gp7I+dUvP1Dr3rG/L1y0uiw7kymD403U88gg3oQtr+JTwdcSBt7N
lQKEG0mgtVq6tKVLMAoGCCqGSM49BAMCA0kAMEYCIQCXQlU4ao9NB2+B+6wsDt3H
LGHZJSZ/4/X9jKH6lUBshAIhAJ5ieZMCVwkwcviaURRptvJuLOzuWTcYFomZAa0K
/Y88
-----END CERTIFICATE-----
