Certificate:
    Data:
        Version: 1 (0x0)
        Serial Number: 4098 (0x1002)
    Signature Algorithm: ecdsa-with-SHA256
        Issuer: CN=sros2testCA
        Validity
            Not Before: Apr 25 00:53:57 2018 GMT
            Not After : Apr 22 00:53:57 2028 GMT
        Subject: CN=publisher_invalid_cert
        Subject Public Key Info:
            Public Key Algorithm: id-ecPublicKey
                Public-Key: (256 bit)
                pub: 
                    04:e3:21:d0:c4:09:7e:2c:05:be:e7:05:43:29:7e:
                    5d:c8:1d:29:e5:b7:72:18:11:15:5c:dc:57:40:f7:
                    f5:58:45:d1:2b:cf:08:26:96:48:38:c2:2d:df:7b:
                    74:45:6a:66:52:40:7f:b4:0a:d5:63:a1:9a:86:a3:
                    12:c6:fe:30:62
                ASN1 OID: prime256v1
                NIST CURVE: P-256
    Signature Algorithm: ecdsa-with-SHA256
         30:46:02:21:00:d3:91:70:cf:1c:ca:91:89:51:5b:15:1e:b0:
         ce:60:b1:62:58:71:c0:d4:04:7c:42:68:aa:4d:b4:ee:4c:1b:
         ed:02:21:00:e5:76:6c:99:44:64:ee:71:7f:f3:f8:3e:4a:00:
         30:35:5b:03:5a:3b:18:d8:1a:3c:9e:f9:66:d0:b1:39:0b:da
-----BEGIN CERTIFICATE-----
MIIBIDCBxgICEAIwCgYIKoZIzj0EAwIwFjEUMBIGA1UEAwwLc3JvczJ0ZXN0Q0Ew
HhcNMTgwNDI1MDA1MzU3WhcNMjgwNDIyMDA1MzU3WjAhMR8wHQYDVQQDDBZwdWJs
aXNoZXJfaW52YWxpZF9jZXJ0MFkwEwYHKoZIzj0CAQYIKoZIzj0DAQcDQgAE4yHQ
xAl+LAW+5wVDKX5dyB0p5bdyGBEVXNxXQPf1WEXRK88IJpZIOMIt33t0RWpmUkB/
tArVY6GahqMSxv4wYjAKBggqhkjOPQQDAgNJADBGAiEA05FwzxzKkYlRWxUesM5g
sWJYccDUBHxCaKpNtO5MG+0CIQDldmyZRGTucX/z+D5KADA1WwNaOxjYGjye+WbQ
sTkL2g==
-----END CERTIFICATE-----
