Certificate:
    Data:
        Version: 3 (0x2)
        Serial Number: 4099 (0x1003)
    Signature Algorithm: ecdsa-with-SHA256
        Issuer: CN=sros2testCA
        Validity
            Not Before: May  1 01:37:35 2018 GMT
            Not After : Apr 28 01:37:35 2028 GMT
        Subject: CN=publisher_missing_key
        Subject Public Key Info:
            Public Key Algorithm: id-ecPublicKey
                Public-Key: (256 bit)
                pub: 
                    04:66:5b:99:90:a1:4d:56:4d:ce:f5:a3:2d:d0:cc:
                    0c:50:24:10:05:7e:3b:63:e6:37:b1:be:e6:12:f9:
                    94:6c:9e:2c:a4:95:18:5e:d5:d6:26:22:6b:0b:9f:
                    a8:a8:b4:e0:df:c2:ae:76:e3:47:a7:f7:92:9f:45:
                    ef:30:dc:35:53
                ASN1 OID: prime256v1
                NIST CURVE: P-256
        X509v3 extensions:
            X509v3 Basic Constraints: 
                CA:FALSE
    Signature Algorithm: ecdsa-with-SHA256
         30:44:02:20:5e:01:02:0e:2f:79:c1:e9:98:1c:8e:4d:95:61:
         1a:cb:93:39:34:07:f1:e8:3c:f1:36:13:e8:3f:6e:31:6b:70:
         02:20:6f:67:de:f4:6a:96:ee:31:27:d9:cb:4e:8b:9d:9e:f4:
         0b:66:74:7c:1c:1d:d9:fc:89:47:e8:ee:8b:74:4c:5a
-----BEGIN CERTIFICATE-----
MIIBMTCB2aADAgECAgIQAzAKBggqhkjOPQQDAjAWMRQwEgYDVQQDDAtzcm9zMnRl
c3RDQTAeFw0xODA1MDEwMTM3MzVaFw0yODA0MjgwMTM3MzVaMCAxHjAcBgNVBAMM
FXB1Ymxpc2hlcl9taXNzaW5nX2tleTBZMBMGByqGSM49AgEGCCqGSM49AwEHA0IA
BGZbmZChTVZNzvWjLdDMDFAkEAV+O2PmN7G+5hL5lGyeLKSVGF7V1iYiawufqKi0
4N/CrnbjR6f3kp9F7zDcNVOjDTALMAkGA1UdEwQCMAAwCgYIKoZIzj0EAwIDRwAw
RAIgXgECDi95wemYHI5NlWEay5M5NAfx6DzxNhPoP24xa3ACIG9n3vRqlu4xJ9nL
ToudnvQLZnR8HB3Z/IlH6O6LdExa
-----END CERTIFICATE-----
