Certificate:
    Data:
        Version: 1 (0x0)
        Serial Number: 4099 (0x1003)
    Signature Algorithm: ecdsa-with-SHA256
        Issuer: CN=sros2testCA
        Validity
            Not Before: Apr 25 00:53:58 2018 GMT
            Not After : Apr 22 00:53:58 2028 GMT
        Subject: CN=publisher_missing_key
        Subject Public Key Info:
            Public Key Algorithm: id-ecPublicKey
                Public-Key: (256 bit)
                pub: 
                    04:59:a0:c1:33:37:19:2f:73:5c:92:bd:6a:c6:cb:
                    0e:f6:21:04:09:b6:b4:ec:eb:e5:e1:8e:97:0c:d3:
                    3b:e7:df:e2:9c:5f:7a:8e:02:79:c5:d7:ec:f6:05:
                    ad:4b:88:4e:34:58:71:0e:40:ea:b5:9c:9c:18:37:
                    38:b4:59:02:02
                ASN1 OID: prime256v1
                NIST CURVE: P-256
    Signature Algorithm: ecdsa-with-SHA256
         30:45:02:20:10:a6:95:67:19:91:df:e9:d3:d3:ff:7d:a1:34:
         81:15:90:05:e5:ef:91:58:9f:91:fa:ac:a7:b3:9e:d7:3a:f3:
         02:21:00:ae:7d:41:55:c1:96:43:9d:7d:ef:59:79:a4:f1:8e:
         60:ae:bc:8b:61:5a:95:7e:02:eb:c3:a5:4b:01:31:f4:b3
-----BEGIN CERTIFICATE-----
MIIBHjCBxQICEAMwCgYIKoZIzj0EAwIwFjEUMBIGA1UEAwwLc3JvczJ0ZXN0Q0Ew
HhcNMTgwNDI1MDA1MzU4WhcNMjgwNDIyMDA1MzU4WjAgMR4wHAYDVQQDDBVwdWJs
aXNoZXJfbWlzc2luZ19rZXkwWTATBgcqhkjOPQIBBggqhkjOPQMBBwNCAARZoMEz
Nxkvc1ySvWrGyw72IQQJtrTs6+XhjpcM0zvn3+KcX3qOAnnF1+z2Ba1LiE40WHEO
QOq1nJwYNzi0WQICMAoGCCqGSM49BAMCA0gAMEUCIBCmlWcZkd/p09P/faE0gRWQ
BeXvkVifkfqsp7Oe1zrzAiEArn1BVcGWQ51971l5pPGOYK68i2FalX4C68OlSwEx
9LM=
-----END CERTIFICATE-----
