Certificate:
    Data:
        Version: 1 (0x0)
        Serial Number: 4099 (0x1003)
    Signature Algorithm: ecdsa-with-SHA256
        Issuer: CN=sros2testCA
        Validity
            Not Before: Oct 11 00:26:09 2017 GMT
            Not After : Oct  9 00:26:09 2027 GMT
        Subject: CN=publisher_missing_key
        Subject Public Key Info:
            Public Key Algorithm: id-ecPublicKey
                Public-Key: (256 bit)
                pub: 
                    04:bb:62:e8:8e:74:22:ee:68:b6:04:1f:b8:64:0e:
                    08:f6:5b:60:f1:1b:3d:3b:88:c0:b0:b6:79:30:1c:
                    58:bf:71:99:1e:b1:d1:b2:dd:a3:75:47:fa:3a:fc:
                    56:81:a0:74:40:99:d3:50:8f:0d:ac:1a:ce:b3:cd:
                    de:95:98:fe:20
                ASN1 OID: prime256v1
                NIST CURVE: P-256
    Signature Algorithm: ecdsa-with-SHA256
         30:45:02:20:46:be:a7:5f:55:e6:60:0a:c4:30:a3:ab:8d:77:
         96:83:8b:1d:08:fb:6c:66:c8:32:30:95:5e:0b:bf:8a:e8:a8:
         02:21:00:a2:af:c4:a4:ae:7c:fa:d3:c0:a9:2e:a8:3b:dd:49:
         23:25:44:89:41:13:1c:31:75:14:fc:b7:eb:d7:1c:03:28
-----BEGIN CERTIFICATE-----
MIIBHjCBxQICEAMwCgYIKoZIzj0EAwIwFjEUMBIGA1UEAwwLc3JvczJ0ZXN0Q0Ew
HhcNMTcxMDExMDAyNjA5WhcNMjcxMDA5MDAyNjA5WjAgMR4wHAYDVQQDDBVwdWJs
aXNoZXJfbWlzc2luZ19rZXkwWTATBgcqhkjOPQIBBggqhkjOPQMBBwNCAAS7YuiO
dCLuaLYEH7hkDgj2W2DxGz07iMCwtnkwHFi/cZkesdGy3aN1R/o6/FaBoHRAmdNQ
jw2sGs6zzd6VmP4gMAoGCCqGSM49BAMCA0gAMEUCIEa+p19V5mAKxDCjq413loOL
HQj7bGbIMjCVXgu/iuioAiEAoq/EpK58+tPAqS6oO91JIyVEiUETHDF1FPy369cc
Ayg=
-----END CERTIFICATE-----
