Certificate:
    Data:
        Version: 3 (0x2)
        Serial Number: 4098 (0x1002)
    Signature Algorithm: ecdsa-with-SHA256
        Issuer: CN=sros2testCA
        Validity
            Not Before: Jul 31 18:48:31 2018 GMT
            Not After : Jul 28 18:48:31 2028 GMT
        Subject: CN=publisher_missing_key
        Subject Public Key Info:
            Public Key Algorithm: id-ecPublicKey
                Public-Key: (256 bit)
                pub: 
                    04:ff:09:ab:83:5c:0b:1e:4a:53:c8:49:bf:b8:5e:
                    ed:99:cc:50:ee:b7:54:0c:f6:16:9c:87:42:3d:6e:
                    25:53:0c:35:d5:d1:05:3b:51:2f:a4:9b:df:d6:17:
                    13:d0:8e:31:33:17:5f:d0:ef:05:88:cc:72:d2:1f:
                    fb:68:95:6b:7f
                ASN1 OID: prime256v1
                NIST CURVE: P-256
        X509v3 extensions:
            X509v3 Basic Constraints: 
                CA:FALSE
    Signature Algorithm: ecdsa-with-SHA256
         30:45:02:21:00:ee:7e:7d:fd:72:84:fe:42:06:56:8b:84:6d:
         af:2e:89:50:0d:49:1a:82:02:69:43:ba:07:e9:07:62:34:12:
         08:02:20:05:00:d3:d0:51:3b:35:bd:36:0d:be:77:9e:32:cc:
         0e:bd:1e:43:fb:d8:2a:94:a6:f1:fb:6c:a6:9d:a0:56:cc
-----BEGIN CERTIFICATE-----
MIIBMjCB2aADAgECAgIQAjAKBggqhkjOPQQDAjAWMRQwEgYDVQQDDAtzcm9zMnRl
c3RDQTAeFw0xODA3MzExODQ4MzFaFw0yODA3MjgxODQ4MzFaMCAxHjAcBgNVBAMM
FXB1Ymxpc2hlcl9taXNzaW5nX2tleTBZMBMGByqGSM49AgEGCCqGSM49AwEHA0IA
BP8Jq4NcCx5KU8hJv7he7ZnMUO63VAz2FpyHQj1uJVMMNdXRBTtRL6Sb39YXE9CO
MTMXX9DvBYjMctIf+2iVa3+jDTALMAkGA1UdEwQCMAAwCgYIKoZIzj0EAwIDSAAw
RQIhAO5+ff1yhP5CBlaLhG2vLolQDUkaggJpQ7oH6QdiNBIIAiAFANPQUTs1vTYN
vneeMswOvR5D+9gqlKbx+2ymnaBWzA==
-----END CERTIFICATE-----
