Certificate:
    Data:
        Version: 3 (0x2)
        Serial Number: 4096 (0x1000)
    Signature Algorithm: ecdsa-with-SHA256
        Issuer: CN=sros2testCA
        Validity
            Not Before: May  1 01:36:59 2018 GMT
            Not After : Apr 28 01:36:59 2028 GMT
        Subject: CN=publisher
        Subject Public Key Info:
            Public Key Algorithm: id-ecPublicKey
                Public-Key: (256 bit)
                pub: 
                    04:0e:dc:d3:0b:38:4b:16:e9:b9:f2:d9:cc:32:82:
                    de:23:a1:78:50:21:d2:30:99:f3:d6:2f:c7:bd:d1:
                    e7:2a:7e:d3:07:67:91:cd:03:74:fb:f5:11:4b:4d:
                    bf:f8:79:d2:aa:af:e0:04:33:a2:4c:3f:1e:25:2e:
                    b1:e0:0e:0f:b6
                ASN1 OID: prime256v1
                NIST CURVE: P-256
        X509v3 extensions:
            X509v3 Basic Constraints: 
                CA:FALSE
    Signature Algorithm: ecdsa-with-SHA256
         30:46:02:21:00:ea:b6:33:7f:49:de:65:d2:9f:87:f0:3a:51:
         ac:5d:45:3c:34:ed:53:c6:d8:5a:94:70:b3:cc:d2:de:b9:6d:
         c9:02:21:00:ff:7e:00:c1:f6:28:fb:9e:17:d5:d2:30:8f:f0:
         80:9c:c8:70:3c:b0:a8:51:03:1f:53:5c:48:51:92:93:56:cf
-----BEGIN CERTIFICATE-----
MIIBJzCBzaADAgECAgIQADAKBggqhkjOPQQDAjAWMRQwEgYDVQQDDAtzcm9zMnRl
c3RDQTAeFw0xODA1MDEwMTM2NTlaFw0yODA0MjgwMTM2NTlaMBQxEjAQBgNVBAMM
CXB1Ymxpc2hlcjBZMBMGByqGSM49AgEGCCqGSM49AwEHA0IABA7c0ws4SxbpufLZ
zDKC3iOheFAh0jCZ89Yvx73R5yp+0wdnkc0DdPv1EUtNv/h50qqv4AQzokw/HiUu
seAOD7ajDTALMAkGA1UdEwQCMAAwCgYIKoZIzj0EAwIDSQAwRgIhAOq2M39J3mXS
n4fwOlGsXUU8NO1TxthalHCzzNLeuW3JAiEA/34AwfYo+54X1dIwj/CAnMhwPLCo
UQMfU1xIUZKTVs8=
-----END CERTIFICATE-----
