Certificate:
    Data:
        Version: 3 (0x2)
        Serial Number: 4096 (0x1000)
    Signature Algorithm: ecdsa-with-SHA256
        Issuer: CN=sros2testCA
        Validity
            Not Before: Jul 31 18:48:30 2018 GMT
            Not After : Jul 28 18:48:30 2028 GMT
        Subject: CN=publisher
        Subject Public Key Info:
            Public Key Algorithm: id-ecPublicKey
                Public-Key: (256 bit)
                pub: 
                    04:88:82:19:d1:f0:9a:8a:ac:aa:57:aa:df:ad:57:
                    7c:9b:92:1b:82:64:8b:1b:e1:64:c7:06:c3:56:35:
                    d7:0f:53:ee:df:b2:e0:71:a7:5e:8c:8d:08:55:a0:
                    16:a7:ac:48:04:f4:c8:a4:22:1c:58:ba:00:0b:3c:
                    89:27:62:e7:86
                ASN1 OID: prime256v1
                NIST CURVE: P-256
        X509v3 extensions:
            X509v3 Basic Constraints: 
                CA:FALSE
    Signature Algorithm: ecdsa-with-SHA256
         30:46:02:21:00:de:4a:04:49:cd:a2:eb:5e:46:b9:06:59:ef:
         4f:3e:73:86:76:c0:04:f8:3d:60:5d:a2:1f:2e:4c:c9:10:df:
         7d:02:21:00:81:22:5d:9c:33:01:39:7e:96:b4:dc:30:0d:cf:
         a8:cd:88:9e:5b:17:d6:bb:7e:c0:21:7b:92:b9:9e:43:b0:7b
-----BEGIN CERTIFICATE-----
MIIBJzCBzaADAgECAgIQADAKBggqhkjOPQQDAjAWMRQwEgYDVQQDDAtzcm9zMnRl
c3RDQTAeFw0xODA3MzExODQ4MzBaFw0yODA3MjgxODQ4MzBaMBQxEjAQBgNVBAMM
CXB1Ymxpc2hlcjBZMBMGByqGSM49AgEGCCqGSM49AwEHA0IABIiCGdHwmoqsqleq
361XfJuSG4JkixvhZMcGw1Y11w9T7t+y4HGnXoyNCFWgFqesSAT0yKQiHFi6AAs8
iSdi54ajDTALMAkGA1UdEwQCMAAwCgYIKoZIzj0EAwIDSQAwRgIhAN5KBEnNoute
RrkGWe9PPnOGdsAE+D1gXaIfLkzJEN99AiEAgSJdnDMBOX6WtNwwDc+ozYieWxfW
u37AIXuSuZ5DsHs=
-----END CERTIFICATE-----
