Certificate:
    Data:
        Version: 1 (0x0)
        Serial Number: 4096 (0x1000)
    Signature Algorithm: ecdsa-with-SHA256
        Issuer: CN=sros2testCA
        Validity
            Not Before: May 16 23:56:00 2017 GMT
            Not After : May 14 23:56:00 2027 GMT
        Subject: CN=publisher
        Subject Public Key Info:
            Public Key Algorithm: id-ecPublicKey
                Public-Key: (256 bit)
                pub: 
                    04:63:af:4f:5d:ed:2e:28:7b:df:92:2e:f2:5d:c1:
                    42:74:de:9c:83:50:a7:76:e8:94:3a:ca:1e:b2:c4:
                    e2:86:f2:6f:36:9c:43:9d:d1:52:d3:b4:49:0c:af:
                    ad:38:3f:7c:e0:91:19:b4:3f:1d:f2:5e:81:94:91:
                    aa:62:c7:ed:79
                ASN1 OID: prime256v1
                NIST CURVE: P-256
    Signature Algorithm: ecdsa-with-SHA256
         30:46:02:21:00:c3:4d:01:1e:95:2f:27:23:7f:93:e9:0d:30:
         0c:a4:74:ad:9c:47:93:fd:9c:71:e1:2b:49:e6:8a:78:ce:9a:
         7e:02:21:00:b6:71:b3:bc:29:6d:7f:1e:da:1d:f8:b4:7a:fc:
         6a:ba:96:e7:23:73:bb:59:5b:de:3a:44:2f:dd:d4:35:4f:7f
-----BEGIN CERTIFICATE-----
MIIBEzCBuQICEAAwCgYIKoZIzj0EAwIwFjEUMBIGA1UEAwwLc3JvczJ0ZXN0Q0Ew
HhcNMTcwNTE2MjM1NjAwWhcNMjcwNTE0MjM1NjAwWjAUMRIwEAYDVQQDDAlwdWJs
aXNoZXIwWTATBgcqhkjOPQIBBggqhkjOPQMBBwNCAARjr09d7S4oe9+SLvJdwUJ0
3pyDUKd26JQ6yh6yxOKG8m82nEOd0VLTtEkMr604P3zgkRm0Px3yXoGUkapix+15
MAoGCCqGSM49BAMCA0kAMEYCIQDDTQEelS8nI3+T6Q0wDKR0rZxHk/2cceErSeaK
eM6afgIhALZxs7wpbX8e2h34tHr8arqW5yNzu1lb3jpEL93UNU9/
-----END CERTIFICATE-----
