Certificate:
    Data:
        Version: 1 (0x0)
        Serial Number: 4098 (0x1002)
    Signature Algorithm: ecdsa-with-SHA256
        Issuer: CN=sros2testCA
        Validity
            Not Before: May 25 20:31:08 2017 GMT
            Not After : May 23 20:31:08 2027 GMT
        Subject: CN=subscriber_invalide_cert
        Subject Public Key Info:
            Public Key Algorithm: id-ecPublicKey
                Public-Key: (256 bit)
                pub: 
                    04:71:b3:6d:3a:74:2e:fd:d0:1e:6a:5e:0c:f0:b7:
                    67:55:f2:cc:19:b9:f3:65:51:fd:41:51:b1:15:d9:
                    25:8c:6b:1a:06:48:91:27:06:94:fb:80:c0:e5:86:
                    78:dc:28:cb:ce:63:ce:15:81:24:fe:9e:f2:96:bc:
                    29:e5:f4:0e:ad
                ASN1 OID: prime256v1
                NIST CURVE: P-256
    Signature Algorithm: ecdsa-with-SHA256
         30:45:02:20:7f:d0:e9:f6:86:d0:3c:f2:68:37:11:cc:10:00:
         08:00:d2:7f:ff:04:95:f1:2b:ff:31:aa:43:5d:26:45:03:f0:
         02:21:00:d9:86:fb:3d:5b:f3:ba:d0:c4:6a:d7:d5:8a:22:83:
         2d:bf:49:90:bc:db:3e:85:c9:14:57:e7:52:66:66:65:82
-----BEGIN CERTIFICATE-----
MIIBITCByAICEAIwCgYIKoZIzj0EAwIwFjEUMBIGA1UEAwwLc3JvczJ0ZXN0Q0Ew
HhcNMTcwNTI1MjAzMTA4WhcNMjcwNTIzMjAzMTA4WjAjMSEwHwYDVQQDDBhzdWJz
Y3JpYmVyX2ludmFsaWRlX2NlcnQwWTATBgcqhkjOPQIBBggqhkjOPQMBBwNCAARx
s206dC790B5qXgzwt2dV8swZufNlUf1BUbEV2SWMaxoGSJEnBpT7gMDlhnjcKMvO
Y84VgST+nvKWvCnl9A6tMAoGCCqGSM49BAMCA0gAMEUCIH/Q6faG0DzyaDcRzBAA
CADSf/8ElfEr/zGqQ10mRQPwAiEA2Yb7PVvzutDEatfViiKDLb9JkLzbPoXJFFfn
UmZmZYI=
-----END CERTIFICATE-----
