Certificate:
    Data:
        Version: 1 (0x0)
        Serial Number: 4099 (0x1003)
    Signature Algorithm: ecdsa-with-SHA256
        Issuer: CN=sros2testCA
        Validity
            Not Before: May 25 20:32:07 2017 GMT
            Not After : May 23 20:32:07 2027 GMT
        Subject: CN=subscriber_invalid_cert
        Subject Public Key Info:
            Public Key Algorithm: id-ecPublicKey
                Public-Key: (256 bit)
                pub: 
                    04:d4:b0:9c:35:a3:43:76:29:98:49:9e:2d:96:36:
                    f8:6d:eb:22:0f:c8:24:03:d2:b9:04:43:d0:5a:8e:
                    5f:d5:61:48:44:e4:d5:a6:00:b7:0b:a1:45:1c:cc:
                    79:0d:54:a8:46:93:5e:bd:79:ab:0c:a1:65:7a:8d:
                    e3:06:ef:01:da
                ASN1 OID: prime256v1
                NIST CURVE: P-256
    Signature Algorithm: ecdsa-with-SHA256
         30:45:02:20:40:01:de:95:42:4c:bf:90:5f:95:c0:0d:89:99:
         a5:df:0d:8b:69:74:a5:4c:ee:ae:3c:a0:dd:83:95:91:01:2d:
         02:21:00:82:96:ce:93:c7:64:86:cb:c4:c8:d1:20:02:9a:2c:
         1f:df:cb:ed:5d:bf:dd:07:08:03:b8:87:0a:7c:f0:b9:31
-----BEGIN CERTIFICATE-----
MIIBIDCBxwICEAMwCgYIKoZIzj0EAwIwFjEUMBIGA1UEAwwLc3JvczJ0ZXN0Q0Ew
HhcNMTcwNTI1MjAzMjA3WhcNMjcwNTIzMjAzMjA3WjAiMSAwHgYDVQQDDBdzdWJz
Y3JpYmVyX2ludmFsaWRfY2VydDBZMBMGByqGSM49AgEGCCqGSM49AwEHA0IABNSw
nDWjQ3YpmEmeLZY2+G3rIg/IJAPSuQRD0FqOX9VhSETk1aYAtwuhRRzMeQ1UqEaT
Xr15qwyhZXqN4wbvAdowCgYIKoZIzj0EAwIDSAAwRQIgQAHelUJMv5BflcANiZml
3w2LaXSlTO6uPKDdg5WRAS0CIQCCls6Tx2SGy8TI0SACmiwf38vtXb/dBwgDuIcK
fPC5MQ==
-----END CERTIFICATE-----
