Certificate:
    Data:
        Version: 1 (0x0)
        Serial Number: 4100 (0x1004)
    Signature Algorithm: ecdsa-with-SHA256
        Issuer: CN=sros2testCA
        Validity
            Not Before: May 25 20:32:30 2017 GMT
            Not After : May 23 20:32:30 2027 GMT
        Subject: CN=publisher_invalid_cert
        Subject Public Key Info:
            Public Key Algorithm: id-ecPublicKey
                Public-Key: (256 bit)
                pub: 
                    04:1c:fa:ef:d4:8d:fc:fe:93:4e:b7:19:a3:66:f6:
                    83:29:48:3f:be:08:61:32:0e:5b:64:46:13:24:df:
                    08:fa:96:85:41:80:95:3f:6a:53:7d:cd:3f:c0:92:
                    2f:58:2c:08:5a:5a:17:2b:54:eb:2a:9d:bd:d4:2f:
                    37:3f:67:d8:f6
                ASN1 OID: prime256v1
                NIST CURVE: P-256
    Signature Algorithm: ecdsa-with-SHA256
         30:45:02:21:00:ff:34:2a:9c:95:be:16:52:c1:7c:01:ab:1d:
         26:62:a4:49:44:53:36:b1:53:43:29:12:37:dd:68:00:f6:e1:
         77:02:20:31:59:cc:96:9c:e0:f6:ac:67:bd:2e:16:11:a2:3e:
         0b:bd:52:5d:83:eb:86:1b:22:6b:00:5a:d3:8c:98:57:e4
-----BEGIN CERTIFICATE-----
MIIBHzCBxgICEAQwCgYIKoZIzj0EAwIwFjEUMBIGA1UEAwwLc3JvczJ0ZXN0Q0Ew
HhcNMTcwNTI1MjAzMjMwWhcNMjcwNTIzMjAzMjMwWjAhMR8wHQYDVQQDDBZwdWJs
aXNoZXJfaW52YWxpZF9jZXJ0MFkwEwYHKoZIzj0CAQYIKoZIzj0DAQcDQgAEHPrv
1I38/pNOtxmjZvaDKUg/vghhMg5bZEYTJN8I+paFQYCVP2pTfc0/wJIvWCwIWloX
K1TrKp291C83P2fY9jAKBggqhkjOPQQDAgNIADBFAiEA/zQqnJW+FlLBfAGrHSZi
pElEUzaxU0MpEjfdaAD24XcCIDFZzJac4PasZ70uFhGiPgu9Ul2D64YbImsAWtOM
mFfk
-----END CERTIFICATE-----
