Certificate:
    Data:
        Version: 1 (0x0)
        Serial Number: 4101 (0x1005)
    Signature Algorithm: ecdsa-with-SHA256
        Issuer: CN=sros2testCA
        Validity
            Not Before: May 25 20:32:35 2017 GMT
            Not After : May 23 20:32:35 2027 GMT
        Subject: CN=publisher_missing_key
        Subject Public Key Info:
            Public Key Algorithm: id-ecPublicKey
                Public-Key: (256 bit)
                pub: 
                    04:56:e1:a5:1e:30:5c:73:47:cf:fa:5e:50:fc:15:
                    1b:8d:99:18:ad:21:c5:2c:a7:7e:d2:de:90:48:c5:
                    56:ef:5e:6d:25:07:7f:8d:2b:04:40:ab:5a:1f:9e:
                    03:b9:6f:0f:8f:2b:f4:da:20:60:df:33:13:91:15:
                    1e:4b:08:89:bd
                ASN1 OID: prime256v1
                NIST CURVE: P-256
    Signature Algorithm: ecdsa-with-SHA256
         30:44:02:20:30:62:9f:db:ee:27:85:a6:8d:a5:6e:7a:80:4e:
         b1:ab:e7:9e:c1:07:a1:4e:ff:4b:97:3a:18:3a:9b:13:98:f4:
         02:20:12:69:88:f8:13:e8:36:e3:b8:1f:f3:1b:e7:a4:66:ba:
         5c:79:25:ac:45:34:5e:82:bb:93:8a:86:1c:ba:a7:7a
-----BEGIN CERTIFICATE-----
MIIBHTCBxQICEAUwCgYIKoZIzj0EAwIwFjEUMBIGA1UEAwwLc3JvczJ0ZXN0Q0Ew
HhcNMTcwNTI1MjAzMjM1WhcNMjcwNTIzMjAzMjM1WjAgMR4wHAYDVQQDDBVwdWJs
aXNoZXJfbWlzc2luZ19rZXkwWTATBgcqhkjOPQIBBggqhkjOPQMBBwNCAARW4aUe
MFxzR8/6XlD8FRuNmRitIcUsp37S3pBIxVbvXm0lB3+NKwRAq1ofngO5bw+PK/Ta
IGDfMxORFR5LCIm9MAoGCCqGSM49BAMCA0cAMEQCIDBin9vuJ4WmjaVueoBOsavn
nsEHoU7/S5c6GDqbE5j0AiASaYj4E+g247gf8xvnpGa6XHklrEU0XoK7k4qGHLqn
eg==
-----END CERTIFICATE-----
